; Function Attrs: mustprogress nounwind uwtable
define dso_local noundef zeroext i1 @_ZNK5clang6driver9ToolChain29addFastMathRuntimeIfAvailableERKN4llvm3opt7ArgListERNS2_11SmallVectorIPKcLj16EEE(ptr noundef nonnull align 8 dereferenceable(2168) %0, ptr noundef nonnull align 8 dereferenceable(176) %1, ptr noundef nonnull align 8 dereferenceable(144) %2) local_unnamed_addr #0 align 2 {
  %4 = alloca %"class.llvm::SmallString.295", align 8
  %5 = alloca %"class.std::__cxx11::basic_string", align 8
  %6 = alloca %"class.llvm::Twine", align 8
  call void @_ZNSt7__cxx1112basic_stringIcSt11char_traitsIcESaIcEEC1Ev(ptr noundef nonnull align 8 dereferenceable(32) %5) #25
  %7 = load ptr, ptr %0, align 8
  %8 = getelementptr inbounds i8, ptr %7, i64 632
  %9 = load ptr, ptr %8, align 8
  %10 = call noundef zeroext i1 %9(ptr noundef nonnull align 8 dereferenceable(2168) %0, ptr noundef nonnull align 8 dereferenceable(176) %1, ptr noundef nonnull align 8 dereferenceable(32) %5) #25
  br i1 %10, label %11, label %37

11:                                               ; preds = %3
  %12 = getelementptr inbounds nuw i8, ptr %6, i64 32
  store i8 4, ptr %12, align 8
  %13 = getelementptr inbounds nuw i8, ptr %6, i64 33
  store i8 1, ptr %13, align 1
  store ptr %5, ptr %6, align 8
  call void @llvm.lifetime.start.p0(i64 280, ptr nonnull %4)
  %14 = getelementptr inbounds i8, ptr %4, i64 24
  call void @_ZN4llvm15SmallVectorBaseImEC2EPvm(ptr noundef nonnull align 8 dereferenceable(24) %4, ptr noundef nonnull %14, i64 noundef 256) #25
  %15 = call { ptr, i64 } @_ZNK4llvm5Twine11toStringRefERNS_15SmallVectorImplIcEE(ptr noundef nonnull align 8 dereferenceable(34) %6, ptr noundef nonnull align 8 dereferenceable(24) %4)
  %16 = extractvalue { ptr, i64 } %15, 0
  %17 = extractvalue { ptr, i64 } %15, 1
  %18 = load ptr, ptr %1, align 8
  %19 = getelementptr inbounds i8, ptr %18, i64 16
  %20 = load ptr, ptr %19, align 8
  %21 = call noundef ptr %20(ptr noundef nonnull align 8 dereferenceable(176) %1, ptr %16, i64 %17) #25
  %22 = call noundef i64 @_ZNK4llvm15SmallVectorBaseImE4sizeEv(ptr noundef nonnull align 8 dereferenceable(24) %4) #25
  %23 = load ptr, ptr %4, align 8
  %24 = icmp eq ptr %23, %14
  br i1 %24, label %_ZNK4llvm3opt7ArgList13MakeArgStringERKNS_5TwineE.exit, label %25

25:                                               ; preds = %11
  call void @free(ptr noundef %23) #25
  br label %_ZNK4llvm3opt7ArgList13MakeArgStringERKNS_5TwineE.exit

_ZNK4llvm3opt7ArgList13MakeArgStringERKNS_5TwineE.exit: ; preds = %11, %25
  call void @llvm.lifetime.end.p0(i64 280, ptr nonnull %4)
  %26 = call noundef i64 @_ZNK4llvm15SmallVectorBaseIjE4sizeEv(ptr noundef nonnull align 8 dereferenceable(16) %2) #25
  %27 = add i64 %26, 1
  %28 = call noundef i64 @_ZNK4llvm15SmallVectorBaseIjE8capacityEv(ptr noundef nonnull align 8 dereferenceable(16) %2) #25
  %.not.i.i.i = icmp ugt i64 %27, %28
  br i1 %.not.i.i.i, label %29, label %_ZN4llvm23SmallVectorTemplateBaseIPKcLb1EE9push_backES2_.exit

29:                                               ; preds = %_ZNK4llvm3opt7ArgList13MakeArgStringERKNS_5TwineE.exit
  %30 = getelementptr inbounds i8, ptr %2, i64 16
  call void @_ZN4llvm15SmallVectorBaseIjE8grow_podEPvmm(ptr noundef nonnull align 8 dereferenceable(16) %2, ptr noundef nonnull %30, i64 noundef %27, i64 noundef 8) #25
  br label %_ZN4llvm23SmallVectorTemplateBaseIPKcLb1EE9push_backES2_.exit

_ZN4llvm23SmallVectorTemplateBaseIPKcLb1EE9push_backES2_.exit: ; preds = %_ZNK4llvm3opt7ArgList13MakeArgStringERKNS_5TwineE.exit, %29
  %31 = load ptr, ptr %2, align 8
  %32 = call noundef i64 @_ZNK4llvm15SmallVectorBaseIjE4sizeEv(ptr noundef nonnull align 8 dereferenceable(16) %2) #25
  %33 = getelementptr inbounds ptr, ptr %31, i64 %32
  %34 = ptrtoint ptr %21 to i64
  store i64 %34, ptr %33, align 1
  %35 = call noundef i64 @_ZNK4llvm15SmallVectorBaseIjE4sizeEv(ptr noundef nonnull align 8 dereferenceable(16) %2) #25
  %36 = add i64 %35, 1
  call void @_ZN4llvm15SmallVectorBaseIjE8set_sizeEm(ptr noundef nonnull align 8 dereferenceable(16) %2, i64 noundef %36) #25
  br label %37

37:                                               ; preds = %3, %_ZN4llvm23SmallVectorTemplateBaseIPKcLb1EE9push_backES2_.exit
  call void @_ZNSt7__cxx1112basic_stringIcSt11char_traitsIcESaIcEED1Ev(ptr noundef nonnull align 8 dereferenceable(32) %5) #25
  ret i1 %10
}